target datalayout = "e-m:e-p270:32:32-p271:32:32-p272:64:64-i64:64-i128:128-f80:128-n8:16:32:64-S128"
target triple = "x86_64-pc-linux-gnu"

%struct.anon = type { i32, [0 x i8] }
%struct.varattrib_1b = type { i8, [0 x i8] }
%struct.varattrib_1b_e = type { i8, i8, [0 x i8] }
%struct.FunctionCallInfoBaseData = type { ptr, ptr, ptr, i32, i8, i16, [0 x %struct.NullableDatum] }
%struct.NullableDatum = type { i64, i8 }

; Function Attrs: inlinehint nounwind uwtable
define internal ptr @DatumGetPointer(i64 noundef %0) #0 {
  %2 = alloca i64, align 8
  store i64 %0, ptr %2, align 8
  %3 = load i64, ptr %2, align 8
  %4 = inttoptr i64 %3 to ptr
  ret ptr %4
}

; Function Attrs: inlinehint nounwind uwtable
define internal i64 @Int32GetDatum(i32 noundef %0) #0 {
  %2 = alloca i32, align 4
  store i32 %0, ptr %2, align 4
  %3 = load i32, ptr %2, align 4
  %4 = sext i32 %3 to i64
  ret i64 %4
}

; Function Attrs: nounwind uwtable
define internal i32 @text_length(i64 noundef %0) #1 {
  %2 = alloca i32, align 4
  %3 = alloca i64, align 8
  %4 = alloca ptr, align 8
  store i64 %0, ptr %3, align 8
  %5 = call i32 @pg_database_encoding_max_length()
  %6 = icmp eq i32 %5, 1
  br i1 %6, label %7, label %14

7:                                                ; preds = %1
  %8 = load i64, ptr %3, align 8
  %9 = call i64 @toast_raw_datum_size(i64 noundef %8)
  %10 = sub i64 %9, 4
  %11 = trunc i64 %10 to i32
  %12 = call i64 @Int32GetDatum(i32 noundef %11)
  %13 = trunc i64 %12 to i32
  store i32 %13, ptr %2, align 4
  br label %99

14:                                               ; preds = %1
  call void @llvm.lifetime.start.p0(i64 8, ptr %4) #13
  %15 = load i64, ptr %3, align 8
  %16 = call ptr @DatumGetPointer(i64 noundef %15)
  %17 = call ptr @pg_detoast_datum_packed(ptr noundef %16)
  store ptr %17, ptr %4, align 8
  %18 = load ptr, ptr %4, align 8
  %19 = getelementptr inbounds nuw %struct.varattrib_1b, ptr %18, i32 0, i32 0
  %20 = load i8, ptr %19, align 1
  %21 = zext i8 %20 to i32
  %22 = and i32 %21, 1
  %23 = icmp eq i32 %22, 1
  br i1 %23, label %24, label %28

24:                                               ; preds = %14
  %25 = load ptr, ptr %4, align 8
  %26 = getelementptr inbounds nuw %struct.varattrib_1b, ptr %25, i32 0, i32 1
  %27 = getelementptr inbounds [0 x i8], ptr %26, i64 0, i64 0
  br label %32

28:                                               ; preds = %14
  %29 = load ptr, ptr %4, align 8
  %30 = getelementptr inbounds nuw %struct.anon, ptr %29, i32 0, i32 1
  %31 = getelementptr inbounds [0 x i8], ptr %30, i64 0, i64 0
  br label %32

32:                                               ; preds = %28, %24
  %33 = phi ptr [ %27, %24 ], [ %31, %28 ]
  %34 = load ptr, ptr %4, align 8
  %35 = getelementptr inbounds nuw %struct.varattrib_1b, ptr %34, i32 0, i32 0
  %36 = load i8, ptr %35, align 1
  %37 = zext i8 %36 to i32
  %38 = icmp eq i32 %37, 1
  br i1 %38, label %39, label %67

39:                                               ; preds = %32
  %40 = load ptr, ptr %4, align 8
  %41 = getelementptr inbounds nuw %struct.varattrib_1b_e, ptr %40, i32 0, i32 1
  %42 = load i8, ptr %41, align 1
  %43 = zext i8 %42 to i32
  %44 = icmp eq i32 %43, 1
  br i1 %44, label %45, label %46

45:                                               ; preds = %39
  br label %63

46:                                               ; preds = %39
  %47 = load ptr, ptr %4, align 8
  %48 = getelementptr inbounds nuw %struct.varattrib_1b_e, ptr %47, i32 0, i32 1
  %49 = load i8, ptr %48, align 1
  %50 = zext i8 %49 to i32
  %51 = and i32 %50, -2
  %52 = icmp eq i32 %51, 2
  br i1 %52, label %53, label %54

53:                                               ; preds = %46
  br label %61

54:                                               ; preds = %46
  %55 = load ptr, ptr %4, align 8
  %56 = getelementptr inbounds nuw %struct.varattrib_1b_e, ptr %55, i32 0, i32 1
  %57 = load i8, ptr %56, align 1
  %58 = zext i8 %57 to i32
  %59 = icmp eq i32 %58, 18
  %60 = select i1 %59, i64 16, i64 0
  br label %61

61:                                               ; preds = %54, %53
  %62 = phi i64 [ 8, %53 ], [ %60, %54 ]
  br label %63

63:                                               ; preds = %61, %45
  %64 = phi i64 [ 8, %45 ], [ %62, %61 ]
  %65 = add i64 2, %64
  %66 = sub i64 %65, 2
  br label %93

67:                                               ; preds = %32
  %68 = load ptr, ptr %4, align 8
  %69 = getelementptr inbounds nuw %struct.varattrib_1b, ptr %68, i32 0, i32 0
  %70 = load i8, ptr %69, align 1
  %71 = zext i8 %70 to i32
  %72 = and i32 %71, 1
  %73 = icmp eq i32 %72, 1
  br i1 %73, label %74, label %83

74:                                               ; preds = %67
  %75 = load ptr, ptr %4, align 8
  %76 = getelementptr inbounds nuw %struct.varattrib_1b, ptr %75, i32 0, i32 0
  %77 = load i8, ptr %76, align 1
  %78 = zext i8 %77 to i32
  %79 = ashr i32 %78, 1
  %80 = and i32 %79, 127
  %81 = sext i32 %80 to i64
  %82 = sub i64 %81, 1
  br label %91

83:                                               ; preds = %67
  %84 = load ptr, ptr %4, align 8
  %85 = getelementptr inbounds nuw %struct.anon, ptr %84, i32 0, i32 0
  %86 = load i32, ptr %85, align 4
  %87 = lshr i32 %86, 2
  %88 = and i32 %87, 1073741823
  %89 = sub i32 %88, 4
  %90 = zext i32 %89 to i64
  br label %91

91:                                               ; preds = %83, %74
  %92 = phi i64 [ %82, %74 ], [ %90, %83 ]
  br label %93

93:                                               ; preds = %91, %63
  %94 = phi i64 [ %66, %63 ], [ %92, %91 ]
  %95 = trunc i64 %94 to i32
  %96 = call i32 @pg_mbstrlen_with_len(ptr noundef %33, i32 noundef %95)
  %97 = call i64 @Int32GetDatum(i32 noundef %96)
  %98 = trunc i64 %97 to i32
  store i32 %98, ptr %2, align 4
  call void @llvm.lifetime.end.p0(i64 8, ptr %4) #13
  br label %99

99:                                               ; preds = %93, %7
  %100 = load i32, ptr %2, align 4
  ret i32 %100
}

; Function Attrs: nounwind uwtable
define dso_local i64 @textlen(ptr noundef %0) #1 {
  %2 = alloca ptr, align 8
  %3 = alloca i64, align 8
  store ptr %0, ptr %2, align 8
  call void @llvm.lifetime.start.p0(i64 8, ptr %3) #13
  %4 = load ptr, ptr %2, align 8
  %5 = getelementptr inbounds nuw %struct.FunctionCallInfoBaseData, ptr %4, i32 0, i32 6
  %6 = getelementptr inbounds [0 x %struct.NullableDatum], ptr %5, i64 0, i64 0
  %7 = getelementptr inbounds nuw %struct.NullableDatum, ptr %6, i32 0, i32 0
  %8 = load i64, ptr %7, align 8
  store i64 %8, ptr %3, align 8
  %9 = load i64, ptr %3, align 8
  %10 = call i32 @text_length(i64 noundef %9)
  %11 = call i64 @Int32GetDatum(i32 noundef %10)
  call void @llvm.lifetime.end.p0(i64 8, ptr %3) #13
  ret i64 %11
}