; Function Attrs: nounwind uwtable
define dso_local range(i64 -2147483648, 2147483648) i64 @textlen(ptr noundef readonly captures(none) %0) local_unnamed_addr #0 {
  %2 = getelementptr inbounds nuw i8, ptr %0, i64 32
  %3 = load i64, ptr %2, align 8
  %4 = tail call i32 @pg_database_encoding_max_length() #19
  %5 = icmp eq i32 %4, 1
  br i1 %5, label %6, label %10

6:                                                ; preds = %1
  %7 = tail call i64 @toast_raw_datum_size(i64 noundef %3) #19
  %8 = trunc i64 %7 to i32
  %9 = add i32 %8, -4
  br label %text_length.exit

10:                                               ; preds = %1
  %11 = inttoptr i64 %3 to ptr
  %12 = tail call ptr @pg_detoast_datum_packed(ptr noundef %11) #19
  %13 = load i8, ptr %12, align 1
  %14 = zext i8 %13 to i32
  %15 = and i32 %14, 1
  %.not.i = icmp eq i32 %15, 0
  %16 = getelementptr inbounds nuw i8, ptr %12, i64 1
  %17 = getelementptr inbounds nuw i8, ptr %12, i64 4
  %18 = select i1 %.not.i, ptr %17, ptr %16
  %19 = icmp eq i8 %13, 1
  br i1 %19, label %20, label %28

20:                                               ; preds = %10
  %21 = load i8, ptr %16, align 1
  %22 = icmp eq i8 %21, 1
  %23 = and i8 %21, -2
  %24 = icmp eq i8 %23, 2
  %or.cond.i = or i1 %22, %24
  %25 = icmp eq i8 %21, 18
  %26 = select i1 %25, i32 16, i32 0
  %27 = select i1 %or.cond.i, i32 8, i32 %26
  br label %36

28:                                               ; preds = %10
  br i1 %.not.i, label %32, label %29

29:                                               ; preds = %28
  %30 = lshr i32 %14, 1
  %31 = add nsw i32 %30, -1
  br label %36

32:                                               ; preds = %28
  %33 = load i32, ptr %12, align 4
  %34 = lshr i32 %33, 2
  %35 = add nsw i32 %34, -4
  br label %36

36:                                               ; preds = %32, %29, %20
  %37 = phi i32 [ %27, %20 ], [ %31, %29 ], [ %35, %32 ]
  %38 = tail call i32 @pg_mbstrlen_with_len(ptr noundef nonnull %18, i32 noundef %37) #19
  br label %text_length.exit

text_length.exit:                                 ; preds = %6, %36
  %.0.in.i = phi i32 [ %9, %6 ], [ %38, %36 ]
  %39 = sext i32 %.0.in.i to i64
  ret i64 %39
}